; Function Attrs: nounwind uwtable
define dso_local ptr @zmalloc_usable(i64 noundef %size, ptr noundef writeonly %usable) local_unnamed_addr #3 {
entry:
  %cmp.i = icmp ugt i64 %size, 9223372036854775806
  br i1 %cmp.i, label %if.then, label %if.end.i

if.end.i:                                         ; preds = %entry
  %cmp1.not.i = icmp eq i64 %size, 0
  %cond.i = select i1 %cmp1.not.i, i64 8, i64 %size
  %call.i = tail call noalias ptr @je_malloc(i64 noundef %cond.i) #25
  %tobool.not.i = icmp eq ptr %call.i, null
  br i1 %tobool.not.i, label %if.then, label %entry.split

entry.split:                                      ; preds = %if.end.i
  %call4.i = tail call i64 @je_malloc_usable_size(ptr noundef nonnull %call.i) #24
  %0 = atomicrmw add ptr @used_memory, i64 %call4.i monotonic, align 8
  br label %if.end

if.then:                                          ; preds = %entry, %if.end.i
  %1 = load ptr, ptr @zmalloc_oom_handler, align 8
  tail call void %1(i64 noundef %size) #24
  br label %if.end

if.end:                                           ; preds = %entry.split, %if.then
  %usable_size.012 = phi i64 [ %call4.i, %entry.split ], [ 0, %if.then ]
  %phi.call = phi ptr [ %call.i, %entry.split ], [ null, %if.then ]
  %tobool2.not = icmp eq ptr %usable, null
  br i1 %tobool2.not, label %if.end4, label %if.then3

if.then3:                                         ; preds = %if.end
  store i64 %usable_size.012, ptr %usable, align 8
  br label %if.end4

if.end4:                                          ; preds = %if.then3, %if.end
  ret ptr %phi.call
}